target datalayout = "e-m:e-p270:32:32-p271:32:32-p272:64:64-i64:64-i128:128-f80:128-n8:16:32:64-S128"
target triple = "x86_64-pc-linux-gnu"

%struct.AVxWorker = type { ptr, i32, ptr, ptr, ptr, ptr, i32 }
%struct.AVxWorkerImpl = type { %union.pthread_mutex_t, %union.pthread_cond_t, i64 }
%union.pthread_mutex_t = type { %struct.__pthread_mutex_s }
%struct.__pthread_mutex_s = type { i32, i32, i32, i32, i32, i16, i16, %struct.__pthread_internal_list }
%struct.__pthread_internal_list = type { ptr, ptr }
%union.pthread_cond_t = type { %struct.__pthread_cond_s }
%struct.__pthread_cond_s = type { %union.__atomic_wide_counter, %union.__atomic_wide_counter, [2 x i32], [2 x i32], i32, i32, [2 x i32] }
%union.__atomic_wide_counter = type { i64 }

; Function Attrs: nounwind uwtable
define internal void @execute(ptr noundef %0) #0 {
  %2 = alloca ptr, align 8
  store ptr %0, ptr %2, align 8
  %3 = load ptr, ptr %2, align 8
  %4 = getelementptr inbounds nuw %struct.AVxWorker, ptr %3, i32 0, i32 3
  %5 = load ptr, ptr %4, align 8
  %6 = icmp ne ptr %5, null
  br i1 %6, label %7, label %25

7:                                                ; preds = %1
  %8 = load ptr, ptr %2, align 8
  %9 = getelementptr inbounds nuw %struct.AVxWorker, ptr %8, i32 0, i32 3
  %10 = load ptr, ptr %9, align 8
  %11 = load ptr, ptr %2, align 8
  %12 = getelementptr inbounds nuw %struct.AVxWorker, ptr %11, i32 0, i32 4
  %13 = load ptr, ptr %12, align 8
  %14 = load ptr, ptr %2, align 8
  %15 = getelementptr inbounds nuw %struct.AVxWorker, ptr %14, i32 0, i32 5
  %16 = load ptr, ptr %15, align 8
  %17 = call i32 %10(ptr noundef %13, ptr noundef %16)
  %18 = icmp ne i32 %17, 0
  %19 = xor i1 %18, true
  %20 = zext i1 %19 to i32
  %21 = load ptr, ptr %2, align 8
  %22 = getelementptr inbounds nuw %struct.AVxWorker, ptr %21, i32 0, i32 6
  %23 = load i32, ptr %22, align 8
  %24 = or i32 %23, %20
  store i32 %24, ptr %22, align 8
  br label %25

25:                                               ; preds = %7, %1
  ret void
}

; Function Attrs: nounwind uwtable
define internal ptr @thread_loop(ptr noundef %0) #0 {
  %2 = alloca ptr, align 8
  %3 = alloca ptr, align 8
  %4 = alloca [16 x i8], align 16
  %5 = alloca i32, align 4
  store ptr %0, ptr %2, align 8
  %6 = load ptr, ptr %2, align 8
  store ptr %6, ptr %3, align 8
  %7 = load ptr, ptr %3, align 8
  %8 = getelementptr inbounds nuw %struct.AVxWorker, ptr %7, i32 0, i32 2
  %9 = load ptr, ptr %8, align 8
  %10 = icmp ne ptr %9, null
  br i1 %10, label %11, label %21

11:                                               ; preds = %1
  %12 = getelementptr inbounds [16 x i8], ptr %4, i64 0, i64 0
  %13 = load ptr, ptr %3, align 8
  %14 = getelementptr inbounds nuw %struct.AVxWorker, ptr %13, i32 0, i32 2
  %15 = load ptr, ptr %14, align 8
  %16 = call ptr @strncpy(ptr noundef %12, ptr noundef %15, i64 noundef 15) #6
  %17 = getelementptr inbounds [16 x i8], ptr %4, i64 0, i64 15
  store i8 0, ptr %17, align 1
  %18 = call i64 @pthread_self() #7
  %19 = getelementptr inbounds [16 x i8], ptr %4, i64 0, i64 0
  %20 = call i32 @pthread_setname_np(i64 noundef %18, ptr noundef %19) #6
  br label %21

21:                                               ; preds = %11, %1
  store i32 0, ptr %5, align 4
  br label %22

22:                                               ; preds = %63, %21
  %23 = load i32, ptr %5, align 4
  %24 = icmp ne i32 %23, 0
  %25 = xor i1 %24, true
  br i1 %25, label %26, label %74

26:                                               ; preds = %22
  %27 = load ptr, ptr %3, align 8
  %28 = getelementptr inbounds nuw %struct.AVxWorker, ptr %27, i32 0, i32 0
  %29 = load ptr, ptr %28, align 8
  %30 = getelementptr inbounds nuw %struct.AVxWorkerImpl, ptr %29, i32 0, i32 0
  %31 = call i32 @pthread_mutex_lock(ptr noundef %30) #6
  br label %32

32:                                               ; preds = %37, %26
  %33 = load ptr, ptr %3, align 8
  %34 = getelementptr inbounds nuw %struct.AVxWorker, ptr %33, i32 0, i32 1
  %35 = load i32, ptr %34, align 8
  %36 = icmp eq i32 %35, 1
  br i1 %36, label %37, label %47

37:                                               ; preds = %32
  %38 = load ptr, ptr %3, align 8
  %39 = getelementptr inbounds nuw %struct.AVxWorker, ptr %38, i32 0, i32 0
  %40 = load ptr, ptr %39, align 8
  %41 = getelementptr inbounds nuw %struct.AVxWorkerImpl, ptr %40, i32 0, i32 1
  %42 = load ptr, ptr %3, align 8
  %43 = getelementptr inbounds nuw %struct.AVxWorker, ptr %42, i32 0, i32 0
  %44 = load ptr, ptr %43, align 8
  %45 = getelementptr inbounds nuw %struct.AVxWorkerImpl, ptr %44, i32 0, i32 0
  %46 = call i32 @pthread_cond_wait(ptr noundef %41, ptr noundef %45)
  br label %32, !llvm.loop !4

47:                                               ; preds = %32
  %48 = load ptr, ptr %3, align 8
  %49 = getelementptr inbounds nuw %struct.AVxWorker, ptr %48, i32 0, i32 1
  %50 = load i32, ptr %49, align 8
  %51 = icmp eq i32 %50, 2
  br i1 %51, label %52, label %56

52:                                               ; preds = %47
  %53 = load ptr, ptr %3, align 8
  call void @execute(ptr noundef %53)
  %54 = load ptr, ptr %3, align 8
  %55 = getelementptr inbounds nuw %struct.AVxWorker, ptr %54, i32 0, i32 1
  store i32 1, ptr %55, align 8
  br label %63

56:                                               ; preds = %47
  %57 = load ptr, ptr %3, align 8
  %58 = getelementptr inbounds nuw %struct.AVxWorker, ptr %57, i32 0, i32 1
  %59 = load i32, ptr %58, align 8
  %60 = icmp eq i32 %59, 0
  br i1 %60, label %61, label %62

61:                                               ; preds = %56
  store i32 1, ptr %5, align 4
  br label %62

62:                                               ; preds = %61, %56
  br label %63

63:                                               ; preds = %62, %52
  %64 = load ptr, ptr %3, align 8
  %65 = getelementptr inbounds nuw %struct.AVxWorker, ptr %64, i32 0, i32 0
  %66 = load ptr, ptr %65, align 8
  %67 = getelementptr inbounds nuw %struct.AVxWorkerImpl, ptr %66, i32 0, i32 1
  %68 = call i32 @pthread_cond_signal(ptr noundef %67) #6
  %69 = load ptr, ptr %3, align 8
  %70 = getelementptr inbounds nuw %struct.AVxWorker, ptr %69, i32 0, i32 0
  %71 = load ptr, ptr %70, align 8
  %72 = getelementptr inbounds nuw %struct.AVxWorkerImpl, ptr %71, i32 0, i32 0
  %73 = call i32 @pthread_mutex_unlock(ptr noundef %72) #6
  br label %22, !llvm.loop !6

74:                                               ; preds = %22
  ret ptr null
}