; Function Attrs: nounwind uwtable
define internal noundef ptr @thread_loop(ptr noundef captures(none) %0) #4 {
  %2 = alloca [16 x i8], align 16
  %3 = getelementptr inbounds nuw i8, ptr %0, i64 16
  %4 = load ptr, ptr %3, align 8
  %.not = icmp eq ptr %4, null
  br i1 %.not, label %10, label %5

5:                                                ; preds = %1
  %6 = call ptr @strncpy(ptr noundef nonnull dereferenceable(1) %2, ptr noundef nonnull dereferenceable(1) %4, i64 noundef 15) #10
  %7 = getelementptr inbounds nuw i8, ptr %2, i64 15
  store i8 0, ptr %7, align 1
  %8 = tail call i64 @pthread_self() #11
  %9 = call i32 @pthread_setname_np(i64 noundef %8, ptr noundef nonnull %2) #10
  br label %10

10:                                               ; preds = %5, %1
  %11 = getelementptr inbounds nuw i8, ptr %0, i64 8
  %12 = getelementptr inbounds nuw i8, ptr %0, i64 24
  %13 = getelementptr inbounds nuw i8, ptr %0, i64 32
  %14 = getelementptr inbounds nuw i8, ptr %0, i64 40
  %15 = getelementptr inbounds nuw i8, ptr %0, i64 48
  br label %21

.critedge:                                        ; preds = %24, %execute.exit
  %16 = load ptr, ptr %0, align 8
  %17 = getelementptr inbounds nuw i8, ptr %16, i64 40
  %18 = call i32 @pthread_cond_signal(ptr noundef nonnull %17) #10
  %19 = load ptr, ptr %0, align 8
  %20 = call i32 @pthread_mutex_unlock(ptr noundef %19) #10
  br label %21

21:                                               ; preds = %.critedge, %10
  %22 = load ptr, ptr %0, align 8
  %23 = call i32 @pthread_mutex_lock(ptr noundef %22) #10
  br label %24

24:                                               ; preds = %26, %21
  %25 = load i32, ptr %11, align 8
  switch i32 %25, label %.critedge [
    i32 1, label %26
    i32 2, label %30
    i32 0, label %.loopexit
  ]

26:                                               ; preds = %24
  %27 = load ptr, ptr %0, align 8
  %28 = getelementptr inbounds nuw i8, ptr %27, i64 40
  %29 = call i32 @pthread_cond_wait(ptr noundef nonnull %28, ptr noundef %27) #10
  br label %24, !llvm.loop !6

30:                                               ; preds = %24
  %31 = load ptr, ptr %12, align 8
  %.not.i = icmp eq ptr %31, null
  br i1 %.not.i, label %execute.exit, label %32

32:                                               ; preds = %30
  %33 = load ptr, ptr %13, align 8
  %34 = load ptr, ptr %14, align 8
  %35 = call i32 %31(ptr noundef %33, ptr noundef %34) #10
  %.not5.i = icmp eq i32 %35, 0
  %36 = zext i1 %.not5.i to i32
  %37 = load i32, ptr %15, align 8
  %38 = or i32 %37, %36
  store i32 %38, ptr %15, align 8
  br label %execute.exit

execute.exit:                                     ; preds = %30, %32
  store i32 1, ptr %11, align 8
  br label %.critedge

.loopexit:                                        ; preds = %24
  %39 = load ptr, ptr %0, align 8
  %40 = getelementptr inbounds nuw i8, ptr %39, i64 40
  %41 = call i32 @pthread_cond_signal(ptr noundef nonnull %40) #10
  %42 = load ptr, ptr %0, align 8
  %43 = call i32 @pthread_mutex_unlock(ptr noundef %42) #10
  ret ptr null
}